; Function Attrs: mustprogress nounwind uwtable
define dso_local void @_ZN4llvm11ValueMapper21scheduleRemapFunctionERNS_8FunctionEj(ptr nocapture noundef nonnull readonly align 8 dereferenceable(8) %0, ptr noundef nonnull align 8 dereferenceable(136) %1, i32 noundef %2) local_unnamed_addr #1 align 2 {
  %4 = alloca %"struct.(anonymous namespace)::WorklistEntry", align 8
  %5 = load ptr, ptr %0, align 8
  call void @llvm.lifetime.start.p0(i64 24, ptr nonnull %4)
  %6 = shl i32 %2, 2
  %7 = and i32 %6, 2147483644
  %8 = or disjoint i32 %7, 3
  store i32 %8, ptr %4, align 8
  %9 = getelementptr inbounds nuw i8, ptr %4, i64 8
  store ptr %1, ptr %9, align 8
  %10 = getelementptr inbounds nuw i8, ptr %5, i64 72
  call fastcc void @_ZN4llvm23SmallVectorTemplateBaseIN12_GLOBAL__N_113WorklistEntryELb1EE9push_backERKS2_(ptr noundef nonnull align 8 dereferenceable(16) %10, ptr noundef nonnull align 8 dereferenceable(24) %4)
  call void @llvm.lifetime.end.p0(i64 24, ptr nonnull %4)
  ret void
}